target datalayout = "e-m:e-p270:32:32-p271:32:32-p272:64:64-i64:64-i128:128-f80:128-n8:16:32:64-S128"
target triple = "x86_64-unknown-linux-gnu"

%"struct.icu_75::CollationData" = type <{ ptr, ptr, ptr, ptr, ptr, ptr, ptr, i32, i32, i32, i32, ptr, ptr, ptr, i32, i32, ptr, ptr, i32, [4 x i8], ptr, i32, [4 x i8] }>
%struct.UTrie2 = type { ptr, ptr, ptr, i32, i32, i16, i16, i32, i32, i32, i32, ptr, i32, i8, i8, i16, ptr }

@.str.64 = private unnamed_addr constant [5 x i8] c"root\00", align 1
@.str.66 = private unnamed_addr constant [4 x i8] c"dia\00", align 1
@.str.67 = private unnamed_addr constant [63 x i8] c"UNSUPPORTED DIACRITIC CE32 in root: TAG: %X CE32: %X char: %X\0A\00", align 1
@.str.68 = private unnamed_addr constant [19 x i8] c"secondaries = [\0A  \00", align 1
@.str.69 = private unnamed_addr constant [3 x i8] c"  \00", align 1
@.str.70 = private unnamed_addr constant [4 x i8] c"\0A]\0A\00", align 1

; Function Attrs: mustprogress nounwind uwtable
define linkonce_odr dso_local noundef signext i8 @_ZN6icu_759Collation13isSpecialCE32Ej(i32 noundef %ce32) #0 comdat align 2 {
entry:
  %ce32.addr = alloca i32, align 4
  store i32 %ce32, ptr %ce32.addr, align 4
  %0 = load i32, ptr %ce32.addr, align 4
  %and = and i32 %0, 255
  %cmp = icmp uge i32 %and, 192
  %conv = zext i1 %cmp to i8
  ret i8 %conv
}

; Function Attrs: mustprogress nounwind uwtable
define linkonce_odr dso_local noundef i64 @_ZN6icu_759Collation10ceFromCE32Ej(i32 noundef %ce32) #0 comdat align 2 {
entry:
  %retval = alloca i64, align 8
  %ce32.addr = alloca i32, align 4
  %tertiary = alloca i32, align 4
  store i32 %ce32, ptr %ce32.addr, align 4
  %0 = load i32, ptr %ce32.addr, align 4
  %and = and i32 %0, 255
  store i32 %and, ptr %tertiary, align 4
  %1 = load i32, ptr %tertiary, align 4
  %cmp = icmp ult i32 %1, 192
  br i1 %cmp, label %if.then, label %if.else

if.then:                                          ; preds = %entry
  %2 = load i32, ptr %ce32.addr, align 4
  %and1 = and i32 %2, -65536
  %conv = zext i32 %and1 to i64
  %shl = shl i64 %conv, 32
  %3 = load i32, ptr %ce32.addr, align 4
  %and2 = and i32 %3, 65280
  %shl3 = shl i32 %and2, 16
  %conv4 = zext i32 %shl3 to i64
  %or = or i64 %shl, %conv4
  %4 = load i32, ptr %tertiary, align 4
  %shl5 = shl i32 %4, 8
  %conv6 = zext i32 %shl5 to i64
  %or7 = or i64 %or, %conv6
  store i64 %or7, ptr %retval, align 8
  br label %return

if.else:                                          ; preds = %entry
  %5 = load i32, ptr %tertiary, align 4
  %6 = load i32, ptr %ce32.addr, align 4
  %sub = sub i32 %6, %5
  store i32 %sub, ptr %ce32.addr, align 4
  %7 = load i32, ptr %tertiary, align 4
  %and8 = and i32 %7, 15
  %cmp9 = icmp eq i32 %and8, 1
  br i1 %cmp9, label %if.then10, label %if.else14

if.then10:                                        ; preds = %if.else
  %8 = load i32, ptr %ce32.addr, align 4
  %conv11 = zext i32 %8 to i64
  %shl12 = shl i64 %conv11, 32
  %or13 = or i64 %shl12, 83887360
  store i64 %or13, ptr %retval, align 8
  br label %return

if.else14:                                        ; preds = %if.else
  %9 = load i32, ptr %ce32.addr, align 4
  %conv15 = zext i32 %9 to i64
  store i64 %conv15, ptr %retval, align 8
  br label %return

return:                                           ; preds = %if.else14, %if.then10, %if.then
  %10 = load i64, ptr %retval, align 8
  ret i64 %10
}

; Function Attrs: mustprogress nounwind uwtable
define linkonce_odr dso_local noundef i32 @_ZN6icu_759Collation11tagFromCE32Ej(i32 noundef %ce32) #0 comdat align 2 {
entry:
  %ce32.addr = alloca i32, align 4
  store i32 %ce32, ptr %ce32.addr, align 4
  %0 = load i32, ptr %ce32.addr, align 4
  %and = and i32 %0, 15
  ret i32 %and
}

; Function Attrs: mustprogress uwtable
define linkonce_odr dso_local noundef signext i8 @_ZN6icu_759Collation18isSimpleOrLongCE32Ej(i32 noundef %ce32) #1 comdat align 2 {
entry:
  %ce32.addr = alloca i32, align 4
  store i32 %ce32, ptr %ce32.addr, align 4
  %0 = load i32, ptr %ce32.addr, align 4
  %call = call noundef signext i8 @_ZN6icu_759Collation13isSpecialCE32Ej(i32 noundef %0)
  %tobool = icmp ne i8 %call, 0
  br i1 %tobool, label %lor.lhs.false, label %lor.end

lor.lhs.false:                                    ; preds = %entry
  %1 = load i32, ptr %ce32.addr, align 4
  %call1 = call noundef i32 @_ZN6icu_759Collation11tagFromCE32Ej(i32 noundef %1)
  %cmp = icmp eq i32 %call1, 1
  br i1 %cmp, label %lor.end, label %lor.rhs

lor.rhs:                                          ; preds = %lor.lhs.false
  %2 = load i32, ptr %ce32.addr, align 4
  %call2 = call noundef i32 @_ZN6icu_759Collation11tagFromCE32Ej(i32 noundef %2)
  %cmp3 = icmp eq i32 %call2, 2
  br label %lor.end

lor.end:                                          ; preds = %lor.rhs, %lor.lhs.false, %entry
  %3 = phi i1 [ true, %lor.lhs.false ], [ true, %entry ], [ %cmp3, %lor.rhs ]
  %conv = zext i1 %3 to i8
  ret i8 %conv
}

; Function Attrs: mustprogress nounwind uwtable
define linkonce_odr dso_local noundef i32 @_ZNK6icu_7513CollationData7getCE32Ei(ptr noundef nonnull align 8 dereferenceable(140) %this, i32 noundef %c) #0 comdat align 2 {
entry:
  %this.addr = alloca ptr, align 8
  %c.addr = alloca i32, align 4
  store ptr %this, ptr %this.addr, align 8
  store i32 %c, ptr %c.addr, align 4
  %this1 = load ptr, ptr %this.addr, align 8
  %trie = getelementptr inbounds %"struct.icu_75::CollationData", ptr %this1, i32 0, i32 0
  %0 = load ptr, ptr %trie, align 8
  %data32 = getelementptr inbounds %struct.UTrie2, ptr %0, i32 0, i32 2
  %1 = load ptr, ptr %data32, align 8
  %2 = load i32, ptr %c.addr, align 4
  %cmp = icmp ult i32 %2, 55296
  br i1 %cmp, label %cond.true, label %cond.false

cond.true:                                        ; preds = %entry
  %trie2 = getelementptr inbounds %"struct.icu_75::CollationData", ptr %this1, i32 0, i32 0
  %3 = load ptr, ptr %trie2, align 8
  %index = getelementptr inbounds %struct.UTrie2, ptr %3, i32 0, i32 0
  %4 = load ptr, ptr %index, align 8
  %5 = load i32, ptr %c.addr, align 4
  %shr = ashr i32 %5, 5
  %add = add nsw i32 0, %shr
  %idxprom = sext i32 %add to i64
  %arrayidx = getelementptr inbounds i16, ptr %4, i64 %idxprom
  %6 = load i16, ptr %arrayidx, align 2
  %conv = zext i16 %6 to i32
  %shl = shl i32 %conv, 2
  %7 = load i32, ptr %c.addr, align 4
  %and = and i32 %7, 31
  %add3 = add nsw i32 %shl, %and
  br label %cond.end49

cond.false:                                       ; preds = %entry
  %8 = load i32, ptr %c.addr, align 4
  %cmp4 = icmp ule i32 %8, 65535
  br i1 %cmp4, label %cond.true5, label %cond.false17

cond.true5:                                       ; preds = %cond.false
  %trie6 = getelementptr inbounds %"struct.icu_75::CollationData", ptr %this1, i32 0, i32 0
  %9 = load ptr, ptr %trie6, align 8
  %index7 = getelementptr inbounds %struct.UTrie2, ptr %9, i32 0, i32 0
  %10 = load ptr, ptr %index7, align 8
  %11 = load i32, ptr %c.addr, align 4
  %cmp8 = icmp sle i32 %11, 56319
  %cond = select i1 %cmp8, i32 320, i32 0
  %12 = load i32, ptr %c.addr, align 4
  %shr9 = ashr i32 %12, 5
  %add10 = add nsw i32 %cond, %shr9
  %idxprom11 = sext i32 %add10 to i64
  %arrayidx12 = getelementptr inbounds i16, ptr %10, i64 %idxprom11
  %13 = load i16, ptr %arrayidx12, align 2
  %conv13 = zext i16 %13 to i32
  %shl14 = shl i32 %conv13, 2
  %14 = load i32, ptr %c.addr, align 4
  %and15 = and i32 %14, 31
  %add16 = add nsw i32 %shl14, %and15
  br label %cond.end47

cond.false17:                                     ; preds = %cond.false
  %15 = load i32, ptr %c.addr, align 4
  %cmp18 = icmp ugt i32 %15, 1114111
  br i1 %cmp18, label %cond.true19, label %cond.false20

cond.true19:                                      ; preds = %cond.false17
  br label %cond.end45

cond.false20:                                     ; preds = %cond.false17
  %16 = load i32, ptr %c.addr, align 4
  %trie21 = getelementptr inbounds %"struct.icu_75::CollationData", ptr %this1, i32 0, i32 0
  %17 = load ptr, ptr %trie21, align 8
  %highStart = getelementptr inbounds %struct.UTrie2, ptr %17, i32 0, i32 9
  %18 = load i32, ptr %highStart, align 4
  %cmp22 = icmp sge i32 %16, %18
  br i1 %cmp22, label %cond.true23, label %cond.false25

cond.true23:                                      ; preds = %cond.false20
  %trie24 = getelementptr inbounds %"struct.icu_75::CollationData", ptr %this1, i32 0, i32 0
  %19 = load ptr, ptr %trie24, align 8
  %highValueIndex = getelementptr inbounds %struct.UTrie2, ptr %19, i32 0, i32 10
  %20 = load i32, ptr %highValueIndex, align 8
  br label %cond.end

cond.false25:                                     ; preds = %cond.false20
  %trie26 = getelementptr inbounds %"struct.icu_75::CollationData", ptr %this1, i32 0, i32 0
  %21 = load ptr, ptr %trie26, align 8
  %index27 = getelementptr inbounds %struct.UTrie2, ptr %21, i32 0, i32 0
  %22 = load ptr, ptr %index27, align 8
  %trie28 = getelementptr inbounds %"struct.icu_75::CollationData", ptr %this1, i32 0, i32 0
  %23 = load ptr, ptr %trie28, align 8
  %index29 = getelementptr inbounds %struct.UTrie2, ptr %23, i32 0, i32 0
  %24 = load ptr, ptr %index29, align 8
  %25 = load i32, ptr %c.addr, align 4
  %shr30 = ashr i32 %25, 11
  %add31 = add nsw i32 2080, %shr30
  %idxprom32 = sext i32 %add31 to i64
  %arrayidx33 = getelementptr inbounds i16, ptr %24, i64 %idxprom32
  %26 = load i16, ptr %arrayidx33, align 2
  %conv34 = zext i16 %26 to i32
  %27 = load i32, ptr %c.addr, align 4
  %shr35 = ashr i32 %27, 5
  %and36 = and i32 %shr35, 63
  %add37 = add nsw i32 %conv34, %and36
  %idxprom38 = sext i32 %add37 to i64
  %arrayidx39 = getelementptr inbounds i16, ptr %22, i64 %idxprom38
  %28 = load i16, ptr %arrayidx39, align 2
  %conv40 = zext i16 %28 to i32
  %shl41 = shl i32 %conv40, 2
  %29 = load i32, ptr %c.addr, align 4
  %and42 = and i32 %29, 31
  %add43 = add nsw i32 %shl41, %and42
  br label %cond.end

cond.end:                                         ; preds = %cond.false25, %cond.true23
  %cond44 = phi i32 [ %20, %cond.true23 ], [ %add43, %cond.false25 ]
  br label %cond.end45

cond.end45:                                       ; preds = %cond.end, %cond.true19
  %cond46 = phi i32 [ 128, %cond.true19 ], [ %cond44, %cond.end ]
  br label %cond.end47

cond.end47:                                       ; preds = %cond.end45, %cond.true5
  %cond48 = phi i32 [ %add16, %cond.true5 ], [ %cond46, %cond.end45 ]
  br label %cond.end49

cond.end49:                                       ; preds = %cond.end47, %cond.true
  %cond50 = phi i32 [ %add3, %cond.true ], [ %cond48, %cond.end47 ]
  %idxprom51 = sext i32 %cond50 to i64
  %arrayidx52 = getelementptr inbounds i32, ptr %1, i64 %idxprom51
  %30 = load i32, ptr %arrayidx52, align 4
  ret i32 %30
}

; Function Attrs: mustprogress uwtable
define internal noundef i32 @_ZL28writeCollationDiacriticsTOMLPKcS0_S0_PKN6icu_7513CollationDataEP10UErrorCode(ptr noundef %outputdir, ptr noundef %name, ptr noundef %collationType, ptr noundef %data, ptr noundef %status) #1 {
entry:
  %retval = alloca i32, align 4
  %outputdir.addr = alloca ptr, align 8
  %name.addr = alloca ptr, align 8
  %collationType.addr = alloca ptr, align 8
  %data.addr = alloca ptr, align 8
  %status.addr = alloca ptr, align 8
  %limit = alloca i32, align 4
  %f = alloca ptr, align 8
  %secondaries = alloca [79 x i16], align 16
  %c = alloca i32, align 4
  %secondary = alloca i16, align 2
  %ce32 = alloca i32, align 4
  %ce = alloca i64, align 8
  store ptr %outputdir, ptr %outputdir.addr, align 8
  store ptr %name, ptr %name.addr, align 8
  store ptr %collationType, ptr %collationType.addr, align 8
  store ptr %data, ptr %data.addr, align 8
  store ptr %status, ptr %status.addr, align 8
  store i32 847, ptr %limit, align 4
  %0 = load ptr, ptr %outputdir.addr, align 8
  %1 = load ptr, ptr %name.addr, align 8
  %2 = load ptr, ptr %collationType.addr, align 8
  %3 = load ptr, ptr %status.addr, align 8
  %call = call noundef ptr @_ZL8openTOMLPKcS0_S0_S0_P10UErrorCode(ptr noundef %0, ptr noundef %1, ptr noundef %2, ptr noundef @.str.66, ptr noundef %3)
  store ptr %call, ptr %f, align 8
  %4 = load ptr, ptr %f, align 8
  %tobool = icmp ne ptr %4, null
  br i1 %tobool, label %if.end, label %if.then

if.then:                                          ; preds = %entry
  %5 = load i32, ptr %limit, align 4
  store i32 %5, ptr %retval, align 4
  br label %return

if.end:                                           ; preds = %entry
  store i32 768, ptr %c, align 4
  br label %for.cond

for.cond:                                         ; preds = %for.inc, %if.end
  %6 = load i32, ptr %c, align 4
  %cmp = icmp slt i32 %6, 847
  br i1 %cmp, label %for.body, label %for.end

for.body:                                         ; preds = %for.cond
  store i16 0, ptr %secondary, align 2
  %7 = load ptr, ptr %data.addr, align 8
  %8 = load i32, ptr %c, align 4
  %call1 = call noundef i32 @_ZNK6icu_7513CollationData7getCE32Ei(ptr noundef nonnull align 8 dereferenceable(140) %7, i32 noundef %8)
  store i32 %call1, ptr %ce32, align 4
  %9 = load i32, ptr %ce32, align 4
  %cmp2 = icmp eq i32 %9, 192
  br i1 %cmp2, label %if.then3, label %if.end5

if.then3:                                         ; preds = %for.body
  %10 = load ptr, ptr %data.addr, align 8
  %base = getelementptr inbounds %"struct.icu_75::CollationData", ptr %10, i32 0, i32 4
  %11 = load ptr, ptr %base, align 8
  %12 = load i32, ptr %c, align 4
  %call4 = call noundef i32 @_ZNK6icu_7513CollationData7getCE32Ei(ptr noundef nonnull align 8 dereferenceable(140) %11, i32 noundef %12)
  store i32 %call4, ptr %ce32, align 4
  br label %if.end5

if.end5:                                          ; preds = %if.then3, %for.body
  %13 = load i32, ptr %c, align 4
  %cmp6 = icmp eq i32 %13, 832
  br i1 %cmp6, label %if.then12, label %lor.lhs.false

lor.lhs.false:                                    ; preds = %if.end5
  %14 = load i32, ptr %c, align 4
  %cmp7 = icmp eq i32 %14, 833
  br i1 %cmp7, label %if.then12, label %lor.lhs.false8

lor.lhs.false8:                                   ; preds = %lor.lhs.false
  %15 = load i32, ptr %c, align 4
  %cmp9 = icmp eq i32 %15, 835
  br i1 %cmp9, label %if.then12, label %lor.lhs.false10

lor.lhs.false10:                                  ; preds = %lor.lhs.false8
  %16 = load i32, ptr %c, align 4
  %cmp11 = icmp eq i32 %16, 836
  br i1 %cmp11, label %if.then12, label %if.else

if.then12:                                        ; preds = %lor.lhs.false10, %lor.lhs.false8, %lor.lhs.false, %if.end5
  br label %if.end29

if.else:                                          ; preds = %lor.lhs.false10
  %17 = load i32, ptr %ce32, align 4
  %call13 = call noundef signext i8 @_ZN6icu_759Collation18isSimpleOrLongCE32Ej(i32 noundef %17)
  %tobool14 = icmp ne i8 %call13, 0
  br i1 %tobool14, label %if.else23, label %if.then15

if.then15:                                        ; preds = %if.else
  %18 = load ptr, ptr %name.addr, align 8
  %call16 = call i32 @strcmp(ptr noundef %18, ptr noundef @.str.64) #15
  %cmp17 = icmp eq i32 %call16, 0
  br i1 %cmp17, label %if.then18, label %if.end22

if.then18:                                        ; preds = %if.then15
  %19 = load i32, ptr %ce32, align 4
  %call19 = call noundef i32 @_ZN6icu_759Collation11tagFromCE32Ej(i32 noundef %19)
  %20 = load i32, ptr %ce32, align 4
  %21 = load i32, ptr %c, align 4
  %call20 = call i32 (ptr, ...) @printf(ptr noundef @.str.67, i32 noundef %call19, i32 noundef %20, i32 noundef %21)
  %22 = load ptr, ptr %f, align 8
  %call21 = call i32 @fclose(ptr noundef %22)
  %23 = load ptr, ptr %status.addr, align 8
  store i32 5, ptr %23, align 4
  %24 = load i32, ptr %limit, align 4
  store i32 %24, ptr %retval, align 4
  br label %return

if.end22:                                         ; preds = %if.then15
  %25 = load i32, ptr %c, align 4
  store i32 %25, ptr %limit, align 4
  br label %for.end

if.else23:                                        ; preds = %if.else
  %26 = load i32, ptr %ce32, align 4
  %call24 = call noundef i64 @_ZN6icu_759Collation10ceFromCE32Ej(i32 noundef %26)
  store i64 %call24, ptr %ce, align 8
  %27 = load i64, ptr %ce, align 8
  %and = and i64 %27, -4294901761
  %cmp25 = icmp ne i64 %and, 1280
  br i1 %cmp25, label %if.then26, label %if.end27

if.then26:                                        ; preds = %if.else23
  %28 = load i32, ptr %c, align 4
  store i32 %28, ptr %limit, align 4
  br label %for.end

if.end27:                                         ; preds = %if.else23
  %29 = load i64, ptr %ce, align 8
  %shr = lshr i64 %29, 16
  %conv = trunc i64 %shr to i16
  store i16 %conv, ptr %secondary, align 2
  br label %if.end28

if.end28:                                         ; preds = %if.end27
  br label %if.end29

if.end29:                                         ; preds = %if.end28, %if.then12
  %30 = load i16, ptr %secondary, align 2
  %31 = load i32, ptr %c, align 4
  %sub = sub nsw i32 %31, 768
  %idxprom = sext i32 %sub to i64
  %arrayidx = getelementptr inbounds [79 x i16], ptr %secondaries, i64 0, i64 %idxprom
  store i16 %30, ptr %arrayidx, align 2
  br label %for.inc

for.inc:                                          ; preds = %if.end29
  %32 = load i32, ptr %c, align 4
  %inc = add nsw i32 %32, 1
  store i32 %inc, ptr %c, align 4
  br label %for.cond, !llvm.loop !23

for.end:                                          ; preds = %if.then26, %if.end22, %for.cond
  %33 = load ptr, ptr %f, align 8
  %arraydecay = getelementptr inbounds [79 x i16], ptr %secondaries, i64 0, i64 0
  %34 = load i32, ptr %limit, align 4
  %sub30 = sub nsw i32 %34, 768
  call void @usrc_writeArray(ptr noundef %33, ptr noundef @.str.68, ptr noundef %arraydecay, i32 noundef 16, i32 noundef %sub30, ptr noundef @.str.69, ptr noundef @.str.70)
  %35 = load ptr, ptr %f, align 8
  %call31 = call i32 @fclose(ptr noundef %35)
  %36 = load i32, ptr %limit, align 4
  store i32 %36, ptr %retval, align 4
  br label %return

return:                                           ; preds = %for.end, %if.then18, %if.then
  %37 = load i32, ptr %retval, align 4
  ret i32 %37
}