; Function Attrs: mustprogress uwtable
define internal fastcc noundef i32 @_ZL28writeCollationDiacriticsTOMLPKcS0_S0_PKN6icu_7513CollationDataEP10UErrorCode(ptr noundef %outputdir, ptr noundef %name, ptr noundef %collationType, ptr nocapture noundef readonly %data, ptr noundef %status) unnamed_addr #1 {
entry:
  %secondaries = alloca [79 x i16], align 16
  %call = tail call fastcc noundef ptr @_ZL8openTOMLPKcS0_S0_S0_P10UErrorCode(ptr noundef %outputdir, ptr noundef %name, ptr noundef %collationType, ptr noundef nonnull @.str.66, ptr noundef %status)
  %tobool.not = icmp eq ptr %call, null
  br i1 %tobool.not, label %return, label %for.cond.preheader

for.cond.preheader:                               ; preds = %entry
  %0 = load ptr, ptr %data, align 8
  %data32.i = getelementptr inbounds i8, ptr %0, i64 16
  %base = getelementptr inbounds i8, ptr %data, i64 32
  %.pre = load ptr, ptr %data32.i, align 8
  %.pre90 = load ptr, ptr %0, align 8
  br label %_ZNK6icu_7513CollationData7getCE32Ei.exit

_ZNK6icu_7513CollationData7getCE32Ei.exit:        ; preds = %for.cond.preheader, %if.end29
  %indvars.iv = phi i64 [ 768, %for.cond.preheader ], [ %indvars.iv.next, %if.end29 ]
  %1 = trunc i64 %indvars.iv to i32
  %shr.i = lshr i64 %indvars.iv, 5
  %idxprom.i = and i64 %shr.i, 134217727
  %arrayidx.i = getelementptr inbounds i16, ptr %.pre90, i64 %idxprom.i
  %2 = load i16, ptr %arrayidx.i, align 2
  %conv.i = zext i16 %2 to i32
  %shl.i = shl nuw nsw i32 %conv.i, 2
  %and.i = and i32 %1, 31
  %add3.i = add nuw nsw i32 %shl.i, %and.i
  %idxprom51.i = zext nneg i32 %add3.i to i64
  %arrayidx52.i = getelementptr inbounds i32, ptr %.pre, i64 %idxprom51.i
  %3 = load i32, ptr %arrayidx52.i, align 4
  %cmp2 = icmp eq i32 %3, 192
  br i1 %cmp2, label %_ZNK6icu_7513CollationData7getCE32Ei.exit74, label %if.end5

_ZNK6icu_7513CollationData7getCE32Ei.exit74:      ; preds = %_ZNK6icu_7513CollationData7getCE32Ei.exit
  %4 = load ptr, ptr %base, align 8
  %5 = load ptr, ptr %4, align 8
  %data32.i28 = getelementptr inbounds i8, ptr %5, i64 16
  %6 = load ptr, ptr %data32.i28, align 8
  %7 = load ptr, ptr %5, align 8
  %arrayidx.i69 = getelementptr inbounds i16, ptr %7, i64 %idxprom.i
  %8 = load i16, ptr %arrayidx.i69, align 2
  %conv.i70 = zext i16 %8 to i32
  %shl.i71 = shl nuw nsw i32 %conv.i70, 2
  %add3.i73 = add nuw nsw i32 %shl.i71, %and.i
  %idxprom51.i40 = zext nneg i32 %add3.i73 to i64
  %arrayidx52.i41 = getelementptr inbounds i32, ptr %6, i64 %idxprom51.i40
  %9 = load i32, ptr %arrayidx52.i41, align 4
  br label %if.end5

if.end5:                                          ; preds = %_ZNK6icu_7513CollationData7getCE32Ei.exit74, %_ZNK6icu_7513CollationData7getCE32Ei.exit
  %ce32.0 = phi i32 [ %9, %_ZNK6icu_7513CollationData7getCE32Ei.exit74 ], [ %3, %_ZNK6icu_7513CollationData7getCE32Ei.exit ]
  %10 = and i32 %1, 1022
  %or.cond = icmp eq i32 %10, 832
  %11 = trunc i64 %indvars.iv to i32
  %12 = add i32 %11, -835
  %13 = icmp ult i32 %12, 2
  %or.cond2 = or i1 %or.cond, %13
  br i1 %or.cond2, label %if.end29, label %if.else

if.else:                                          ; preds = %if.end5
  %and.i.i = and i32 %ce32.0, 192
  %cmp.i.not.i = icmp eq i32 %and.i.i, 192
  br i1 %cmp.i.not.i, label %lor.lhs.false.i, label %if.else23

lor.lhs.false.i:                                  ; preds = %if.else
  %and.i3.i = and i32 %ce32.0, 15
  %and.i3.i.off = add nsw i32 %and.i3.i, -1
  %switch = icmp ult i32 %and.i3.i.off, 2
  br i1 %switch, label %if.else23, label %if.then15

if.then15:                                        ; preds = %lor.lhs.false.i
  %call16 = tail call i32 @strcmp(ptr noundef nonnull dereferenceable(1) %name, ptr noundef nonnull dereferenceable(5) @.str.64) #22
  %cmp17 = icmp eq i32 %call16, 0
  br i1 %cmp17, label %if.then18, label %for.end

if.then18:                                        ; preds = %if.then15
  %call20 = tail call i32 (ptr, ...) @printf(ptr noundef nonnull dereferenceable(1) @.str.67, i32 noundef %and.i3.i, i32 noundef %ce32.0, i32 noundef %1)
  %call21 = tail call i32 @fclose(ptr noundef nonnull %call)
  store i32 5, ptr %status, align 4
  br label %return

if.else23:                                        ; preds = %lor.lhs.false.i, %if.else
  %and.i78 = and i32 %ce32.0, 255
  %cmp.i79 = icmp ult i32 %and.i78, 192
  br i1 %cmp.i79, label %if.then.i, label %if.else.i

if.then.i:                                        ; preds = %if.else23
  %and1.i = and i32 %ce32.0, -65536
  %conv.i80 = zext i32 %and1.i to i64
  %shl.i81 = shl nuw i64 %conv.i80, 32
  %and2.i = shl i32 %ce32.0, 16
  %shl3.i = and i32 %and2.i, -16777216
  %conv4.i = zext i32 %shl3.i to i64
  %or.i = or disjoint i64 %shl.i81, %conv4.i
  %shl5.i = shl nuw nsw i32 %and.i78, 8
  %conv6.i = zext nneg i32 %shl5.i to i64
  %or7.i = or disjoint i64 %or.i, %conv6.i
  br label %_ZN6icu_759Collation10ceFromCE32Ej.exit

if.else.i:                                        ; preds = %if.else23
  %sub.i = and i32 %ce32.0, -256
  %and8.i = and i32 %ce32.0, 15
  %cmp9.i = icmp eq i32 %and8.i, 1
  %conv11.i = zext i32 %sub.i to i64
  br i1 %cmp9.i, label %if.then10.i, label %_ZN6icu_759Collation10ceFromCE32Ej.exit

if.then10.i:                                      ; preds = %if.else.i
  %shl12.i = shl nuw i64 %conv11.i, 32
  %or13.i = or disjoint i64 %shl12.i, 83887360
  br label %_ZN6icu_759Collation10ceFromCE32Ej.exit

_ZN6icu_759Collation10ceFromCE32Ej.exit:          ; preds = %if.then.i, %if.else.i, %if.then10.i
  %retval.0.i = phi i64 [ %or7.i, %if.then.i ], [ %or13.i, %if.then10.i ], [ %conv11.i, %if.else.i ]
  %and = and i64 %retval.0.i, -4294901761
  %cmp25.not = icmp eq i64 %and, 1280
  br i1 %cmp25.not, label %if.end27, label %for.end

if.end27:                                         ; preds = %_ZN6icu_759Collation10ceFromCE32Ej.exit
  %shr = lshr i64 %retval.0.i, 16
  %conv = trunc i64 %shr to i16
  br label %if.end29

if.end29:                                         ; preds = %if.end5, %if.end27
  %secondary.0 = phi i16 [ 0, %if.end5 ], [ %conv, %if.end27 ]
  %14 = add nsw i64 %indvars.iv, -768
  %arrayidx = getelementptr inbounds [79 x i16], ptr %secondaries, i64 0, i64 %14
  store i16 %secondary.0, ptr %arrayidx, align 2
  %indvars.iv.next = add nuw nsw i64 %indvars.iv, 1
  %exitcond.not = icmp eq i64 %indvars.iv.next, 847
  br i1 %exitcond.not, label %for.end, label %_ZNK6icu_7513CollationData7getCE32Ei.exit, !llvm.loop !27

for.end:                                          ; preds = %_ZN6icu_759Collation10ceFromCE32Ej.exit, %if.end29, %if.then15
  %limit.0 = phi i32 [ %1, %if.then15 ], [ %1, %_ZN6icu_759Collation10ceFromCE32Ej.exit ], [ 847, %if.end29 ]
  %sub30 = add nsw i32 %limit.0, -768
  call void @usrc_writeArray(ptr noundef nonnull %call, ptr noundef nonnull @.str.68, ptr noundef nonnull %secondaries, i32 noundef 16, i32 noundef %sub30, ptr noundef nonnull @.str.69, ptr noundef nonnull @.str.70)
  %call31 = call i32 @fclose(ptr noundef nonnull %call)
  br label %return

return:                                           ; preds = %entry, %for.end, %if.then18
  %retval.0 = phi i32 [ %limit.0, %for.end ], [ 847, %if.then18 ], [ 847, %entry ]
  ret i32 %retval.0
}